; Function Attrs: mustprogress nofree norecurse nosync nounwind memory(argmem: readwrite) uwtable
define dso_local void @_ZN4llvm6SHA2565finalERSt5arrayIjLm8EE(ptr nocapture noundef nonnull align 4 dereferenceable(104) %0, ptr nocapture noundef nonnull writeonly align 4 dereferenceable(32) %1) local_unnamed_addr #4 align 2 {
  tail call void @_ZN4llvm6SHA2563padEv(ptr noundef nonnull align 4 dereferenceable(104) %0)
  %3 = getelementptr inbounds nuw i8, ptr %0, i64 64
  br label %4

4:                                                ; preds = %2, %4
  %indvars.iv = phi i64 [ 0, %2 ], [ %indvars.iv.next, %4 ]
  %5 = getelementptr inbounds [8 x i32], ptr %3, i64 0, i64 %indvars.iv
  %6 = load i32, ptr %5, align 4
  %7 = tail call noundef i32 @llvm.bswap.i32(i32 %6)
  %8 = getelementptr inbounds [8 x i32], ptr %1, i64 0, i64 %indvars.iv
  store i32 %7, ptr %8, align 4
  %indvars.iv.next = add nuw nsw i64 %indvars.iv, 1
  %exitcond.not = icmp eq i64 %indvars.iv.next, 8
  br i1 %exitcond.not, label %9, label %4, !llvm.loop !9

9:                                                ; preds = %4
  ret void
}